; Function Attrs: nounwind uwtable
define internal fastcc void @handleSyncLoss(ptr noundef %0, i8 noundef signext %1, i32 noundef %2) unnamed_addr #0 {
  %4 = sext i8 %1 to i32
  tail call void (ptr, ptr, ...) @libpq_append_conn_error(ptr noundef %0, ptr noundef nonnull @.str.34, i32 noundef %4, i32 noundef %2) #16
  tail call void @pqSaveErrorResult(ptr noundef %0) #16
  %5 = getelementptr inbounds nuw i8, ptr %0, i64 420
  store i32 2, ptr %5, align 4
  tail call void @pqDropConnection(ptr noundef %0, i1 noundef zeroext true) #16
  %6 = getelementptr inbounds nuw i8, ptr %0, i64 416
  store i32 1, ptr %6, align 8
  ret void
}